target datalayout = "e-m:e-p270:32:32-p271:32:32-p272:64:64-i64:64-i128:128-f80:128-n8:16:32:64-S128"
target triple = "x86_64-unknown-linux-gnu"

%struct.QEMUIOVector = type { ptr, i32, %union.anon }
%union.anon = type { %struct.anon }
%struct.anon = type { i32, %struct.iovec }
%struct.iovec = type { ptr, i64 }
%struct.IDEBus = type { %struct.BusState, ptr, ptr, [2 x %struct.IDEState], ptr, i32, i32, ptr, i8, i8, ptr, i32, i8, i64, i32, %struct.PortioList, %struct.PortioList, ptr }
%struct.BusState = type { %struct.Object, ptr, ptr, ptr, i32, i8, i8, i32, %union.BusChildHead, %struct.BusStateEntry, %struct.ResettableState }
%struct.Object = type { ptr, ptr, ptr, i32, ptr }
%union.BusChildHead = type { %struct.QTailQLink }
%struct.QTailQLink = type { ptr, ptr }
%struct.BusStateEntry = type { ptr, ptr }
%struct.ResettableState = type { i32, i8, i8 }
%struct.IDEState = type { ptr, i8, i32, i32, i32, i32, i32, i32, i32, i64, i32, i32, [512 x i8], i32, [21 x i8], [41 x i8], i64, i8, i8, i32, i8, i8, i8, i8, i8, i8, i8, i8, i8, i8, i8, i8, i8, ptr, [9 x i8], %struct.unreported_events, i8, i8, i8, i8, i8, i32, i32, i32, i32, i32, i32, %struct.BlockAcctCookie, ptr, %struct.QEMUIOVector, %struct.anon.1, i64, i32, %struct.QEMUSGList, i32, ptr, ptr, ptr, ptr, i32, i32, i32, i8, ptr, i32, i8, i32, ptr, i32, i32, i8, i8, i32, i8, ptr, i32 }
%struct.unreported_events = type { i8, i8 }
%struct.BlockAcctCookie = type { i64, i64, i32 }
%struct.anon.1 = type { ptr }
%struct.QEMUSGList = type { ptr, i32, i32, i64, ptr, ptr }
%struct.PortioList = type { ptr, ptr, ptr, i32, ptr, ptr, ptr, i8 }

; Function Attrs: nounwind sspstrong uwtable
define internal zeroext i16 @cpu_to_le16(i16 noundef zeroext %v) #0 {
entry:
  %v.addr = alloca i16, align 2
  store i16 %v, ptr %v.addr, align 2
  %0 = load i16, ptr %v.addr, align 2
  ret i16 %0
}

; Function Attrs: nounwind sspstrong uwtable
define internal void @qemu_irq_raise(ptr noundef %irq) #0 {
entry:
  %irq.addr = alloca ptr, align 8
  store ptr %irq, ptr %irq.addr, align 8
  %0 = load ptr, ptr %irq.addr, align 8
  call void @qemu_set_irq(ptr noundef %0, i32 noundef 1)
  ret void
}

; Function Attrs: nounwind sspstrong uwtable
define internal void @padstr(ptr noundef %str, ptr noundef %src, i32 noundef %len) #0 {
entry:
  %str.addr = alloca ptr, align 8
  %src.addr = alloca ptr, align 8
  %len.addr = alloca i32, align 4
  %i = alloca i32, align 4
  %v = alloca i32, align 4
  store ptr %str, ptr %str.addr, align 8
  store ptr %src, ptr %src.addr, align 8
  store i32 %len, ptr %len.addr, align 4
  store i32 0, ptr %i, align 4
  br label %for.cond

for.cond:                                         ; preds = %for.inc, %entry
  %0 = load i32, ptr %i, align 4
  %1 = load i32, ptr %len.addr, align 4
  %cmp = icmp slt i32 %0, %1
  br i1 %cmp, label %for.body, label %for.end

for.body:                                         ; preds = %for.cond
  %2 = load ptr, ptr %src.addr, align 8
  %3 = load i8, ptr %2, align 1
  %tobool = icmp ne i8 %3, 0
  br i1 %tobool, label %if.then, label %if.else

if.then:                                          ; preds = %for.body
  %4 = load ptr, ptr %src.addr, align 8
  %incdec.ptr = getelementptr i8, ptr %4, i32 1
  store ptr %incdec.ptr, ptr %src.addr, align 8
  %5 = load i8, ptr %4, align 1
  %conv = sext i8 %5 to i32
  store i32 %conv, ptr %v, align 4
  br label %if.end

if.else:                                          ; preds = %for.body
  store i32 32, ptr %v, align 4
  br label %if.end

if.end:                                           ; preds = %if.else, %if.then
  %6 = load i32, ptr %v, align 4
  %conv1 = trunc i32 %6 to i8
  %7 = load ptr, ptr %str.addr, align 8
  %8 = load i32, ptr %i, align 4
  %xor = xor i32 %8, 1
  %idxprom = sext i32 %xor to i64
  %arrayidx = getelementptr i8, ptr %7, i64 %idxprom
  store i8 %conv1, ptr %arrayidx, align 1
  br label %for.inc

for.inc:                                          ; preds = %if.end
  %9 = load i32, ptr %i, align 4
  %inc = add i32 %9, 1
  store i32 %inc, ptr %i, align 4
  br label %for.cond, !llvm.loop !22

for.end:                                          ; preds = %for.cond
  ret void
}

; Function Attrs: nounwind sspstrong uwtable
define internal void @put_le16(ptr noundef %p, i32 noundef %v) #0 {
entry:
  %p.addr = alloca ptr, align 8
  %v.addr = alloca i32, align 4
  store ptr %p, ptr %p.addr, align 8
  store i32 %v, ptr %v.addr, align 4
  %0 = load i32, ptr %v.addr, align 4
  %conv = trunc i32 %0 to i16
  %call = call zeroext i16 @cpu_to_le16(i16 noundef zeroext %conv)
  %1 = load ptr, ptr %p.addr, align 8
  store i16 %call, ptr %1, align 2
  ret void
}

; Function Attrs: nounwind sspstrong uwtable
define dso_local void @ide_bus_set_irq(ptr noundef %bus) #0 {
entry:
  %bus.addr = alloca ptr, align 8
  store ptr %bus, ptr %bus.addr, align 8
  %0 = load ptr, ptr %bus.addr, align 8
  %cmd = getelementptr inbounds %struct.IDEBus, ptr %0, i32 0, i32 9
  %1 = load i8, ptr %cmd, align 1
  %conv = zext i8 %1 to i32
  %and = and i32 %conv, 2
  %tobool = icmp ne i32 %and, 0
  br i1 %tobool, label %if.end, label %if.then

if.then:                                          ; preds = %entry
  %2 = load ptr, ptr %bus.addr, align 8
  %irq = getelementptr inbounds %struct.IDEBus, ptr %2, i32 0, i32 10
  %3 = load ptr, ptr %irq, align 8
  call void @qemu_irq_raise(ptr noundef %3)
  br label %if.end

if.end:                                           ; preds = %if.then, %entry
  ret void
}

; Function Attrs: nounwind sspstrong uwtable
define dso_local void @ide_transfer_start(ptr noundef %s, ptr noundef %buf, i32 noundef %size, ptr noundef %end_transfer_func) #0 {
entry:
  %s.addr = alloca ptr, align 8
  %buf.addr = alloca ptr, align 8
  %size.addr = alloca i32, align 4
  %end_transfer_func.addr = alloca ptr, align 8
  store ptr %s, ptr %s.addr, align 8
  store ptr %buf, ptr %buf.addr, align 8
  store i32 %size, ptr %size.addr, align 4
  store ptr %end_transfer_func, ptr %end_transfer_func.addr, align 8
  %0 = load ptr, ptr %s.addr, align 8
  %1 = load ptr, ptr %buf.addr, align 8
  %2 = load i32, ptr %size.addr, align 4
  %3 = load ptr, ptr %end_transfer_func.addr, align 8
  %call = call zeroext i1 @ide_transfer_start_norecurse(ptr noundef %0, ptr noundef %1, i32 noundef %2, ptr noundef %3)
  br i1 %call, label %if.then, label %if.end

if.then:                                          ; preds = %entry
  %4 = load ptr, ptr %end_transfer_func.addr, align 8
  %5 = load ptr, ptr %s.addr, align 8
  call void %4(ptr noundef %5)
  br label %if.end

if.end:                                           ; preds = %if.then, %entry
  ret void
}

; Function Attrs: nounwind sspstrong uwtable
define internal void @ide_atapi_identify(ptr noundef %s) #0 {
entry:
  %s.addr = alloca ptr, align 8
  %p = alloca ptr, align 8
  store ptr %s, ptr %s.addr, align 8
  %0 = load ptr, ptr %s.addr, align 8
  %identify_data = getelementptr inbounds %struct.IDEState, ptr %0, i32 0, i32 12
  %arraydecay = getelementptr inbounds [512 x i8], ptr %identify_data, i64 0, i64 0
  store ptr %arraydecay, ptr %p, align 8
  %1 = load ptr, ptr %s.addr, align 8
  %identify_set = getelementptr inbounds %struct.IDEState, ptr %1, i32 0, i32 11
  %2 = load i32, ptr %identify_set, align 4
  %tobool = icmp ne i32 %2, 0
  br i1 %tobool, label %if.then, label %if.end

if.then:                                          ; preds = %entry
  br label %fill_buffer

if.end:                                           ; preds = %entry
  %3 = load ptr, ptr %p, align 8
  call void @llvm.memset.p0.i64(ptr align 2 %3, i8 0, i64 512, i1 false)
  %4 = load ptr, ptr %p, align 8
  %add.ptr = getelementptr i16, ptr %4, i64 0
  call void @put_le16(ptr noundef %add.ptr, i32 noundef 34240)
  %5 = load ptr, ptr %p, align 8
  %add.ptr1 = getelementptr i16, ptr %5, i64 10
  %6 = load ptr, ptr %s.addr, align 8
  %drive_serial_str = getelementptr inbounds %struct.IDEState, ptr %6, i32 0, i32 14
  %arraydecay2 = getelementptr inbounds [21 x i8], ptr %drive_serial_str, i64 0, i64 0
  call void @padstr(ptr noundef %add.ptr1, ptr noundef %arraydecay2, i32 noundef 20)
  %7 = load ptr, ptr %p, align 8
  %add.ptr3 = getelementptr i16, ptr %7, i64 20
  call void @put_le16(ptr noundef %add.ptr3, i32 noundef 3)
  %8 = load ptr, ptr %p, align 8
  %add.ptr4 = getelementptr i16, ptr %8, i64 21
  call void @put_le16(ptr noundef %add.ptr4, i32 noundef 512)
  %9 = load ptr, ptr %p, align 8
  %add.ptr5 = getelementptr i16, ptr %9, i64 22
  call void @put_le16(ptr noundef %add.ptr5, i32 noundef 4)
  %10 = load ptr, ptr %p, align 8
  %add.ptr6 = getelementptr i16, ptr %10, i64 23
  %11 = load ptr, ptr %s.addr, align 8
  %version = getelementptr inbounds %struct.IDEState, ptr %11, i32 0, i32 34
  %arraydecay7 = getelementptr inbounds [9 x i8], ptr %version, i64 0, i64 0
  call void @padstr(ptr noundef %add.ptr6, ptr noundef %arraydecay7, i32 noundef 8)
  %12 = load ptr, ptr %p, align 8
  %add.ptr8 = getelementptr i16, ptr %12, i64 27
  %13 = load ptr, ptr %s.addr, align 8
  %drive_model_str = getelementptr inbounds %struct.IDEState, ptr %13, i32 0, i32 15
  %arraydecay9 = getelementptr inbounds [41 x i8], ptr %drive_model_str, i64 0, i64 0
  call void @padstr(ptr noundef %add.ptr8, ptr noundef %arraydecay9, i32 noundef 40)
  %14 = load ptr, ptr %p, align 8
  %add.ptr10 = getelementptr i16, ptr %14, i64 48
  call void @put_le16(ptr noundef %add.ptr10, i32 noundef 1)
  %15 = load ptr, ptr %p, align 8
  %add.ptr11 = getelementptr i16, ptr %15, i64 49
  call void @put_le16(ptr noundef %add.ptr11, i32 noundef 768)
  %16 = load ptr, ptr %p, align 8
  %add.ptr12 = getelementptr i16, ptr %16, i64 53
  call void @put_le16(ptr noundef %add.ptr12, i32 noundef 7)
  %17 = load ptr, ptr %p, align 8
  %add.ptr13 = getelementptr i16, ptr %17, i64 62
  call void @put_le16(ptr noundef %add.ptr13, i32 noundef 7)
  %18 = load ptr, ptr %p, align 8
  %add.ptr14 = getelementptr i16, ptr %18, i64 63
  call void @put_le16(ptr noundef %add.ptr14, i32 noundef 7)
  %19 = load ptr, ptr %p, align 8
  %add.ptr15 = getelementptr i16, ptr %19, i64 64
  call void @put_le16(ptr noundef %add.ptr15, i32 noundef 3)
  %20 = load ptr, ptr %p, align 8
  %add.ptr16 = getelementptr i16, ptr %20, i64 65
  call void @put_le16(ptr noundef %add.ptr16, i32 noundef 180)
  %21 = load ptr, ptr %p, align 8
  %add.ptr17 = getelementptr i16, ptr %21, i64 66
  call void @put_le16(ptr noundef %add.ptr17, i32 noundef 180)
  %22 = load ptr, ptr %p, align 8
  %add.ptr18 = getelementptr i16, ptr %22, i64 67
  call void @put_le16(ptr noundef %add.ptr18, i32 noundef 300)
  %23 = load ptr, ptr %p, align 8
  %add.ptr19 = getelementptr i16, ptr %23, i64 68
  call void @put_le16(ptr noundef %add.ptr19, i32 noundef 180)
  %24 = load ptr, ptr %p, align 8
  %add.ptr20 = getelementptr i16, ptr %24, i64 71
  call void @put_le16(ptr noundef %add.ptr20, i32 noundef 30)
  %25 = load ptr, ptr %p, align 8
  %add.ptr21 = getelementptr i16, ptr %25, i64 72
  call void @put_le16(ptr noundef %add.ptr21, i32 noundef 30)
  %26 = load ptr, ptr %s.addr, align 8
  %ncq_queues = getelementptr inbounds %struct.IDEState, ptr %26, i32 0, i32 75
  %27 = load i32, ptr %ncq_queues, align 8
  %tobool22 = icmp ne i32 %27, 0
  br i1 %tobool22, label %if.then23, label %if.end27

if.then23:                                        ; preds = %if.end
  %28 = load ptr, ptr %p, align 8
  %add.ptr24 = getelementptr i16, ptr %28, i64 75
  %29 = load ptr, ptr %s.addr, align 8
  %ncq_queues25 = getelementptr inbounds %struct.IDEState, ptr %29, i32 0, i32 75
  %30 = load i32, ptr %ncq_queues25, align 8
  %sub = sub i32 %30, 1
  call void @put_le16(ptr noundef %add.ptr24, i32 noundef %sub)
  %31 = load ptr, ptr %p, align 8
  %add.ptr26 = getelementptr i16, ptr %31, i64 76
  call void @put_le16(ptr noundef %add.ptr26, i32 noundef 256)
  br label %if.end27

if.end27:                                         ; preds = %if.then23, %if.end
  %32 = load ptr, ptr %p, align 8
  %add.ptr28 = getelementptr i16, ptr %32, i64 80
  call void @put_le16(ptr noundef %add.ptr28, i32 noundef 30)
  %33 = load ptr, ptr %s.addr, align 8
  %wwn = getelementptr inbounds %struct.IDEState, ptr %33, i32 0, i32 16
  %34 = load i64, ptr %wwn, align 8
  %tobool29 = icmp ne i64 %34, 0
  br i1 %tobool29, label %if.then30, label %if.end33

if.then30:                                        ; preds = %if.end27
  %35 = load ptr, ptr %p, align 8
  %add.ptr31 = getelementptr i16, ptr %35, i64 84
  call void @put_le16(ptr noundef %add.ptr31, i32 noundef 256)
  %36 = load ptr, ptr %p, align 8
  %add.ptr32 = getelementptr i16, ptr %36, i64 87
  call void @put_le16(ptr noundef %add.ptr32, i32 noundef 256)
  br label %if.end33

if.end33:                                         ; preds = %if.then30, %if.end27
  %37 = load ptr, ptr %p, align 8
  %add.ptr34 = getelementptr i16, ptr %37, i64 88
  call void @put_le16(ptr noundef %add.ptr34, i32 noundef 8255)
  %38 = load ptr, ptr %s.addr, align 8
  %wwn35 = getelementptr inbounds %struct.IDEState, ptr %38, i32 0, i32 16
  %39 = load i64, ptr %wwn35, align 8
  %tobool36 = icmp ne i64 %39, 0
  br i1 %tobool36, label %if.then37, label %if.end51

if.then37:                                        ; preds = %if.end33
  %40 = load ptr, ptr %p, align 8
  %add.ptr38 = getelementptr i16, ptr %40, i64 108
  %41 = load ptr, ptr %s.addr, align 8
  %wwn39 = getelementptr inbounds %struct.IDEState, ptr %41, i32 0, i32 16
  %42 = load i64, ptr %wwn39, align 8
  %shr = lshr i64 %42, 48
  %conv = trunc i64 %shr to i32
  call void @put_le16(ptr noundef %add.ptr38, i32 noundef %conv)
  %43 = load ptr, ptr %p, align 8
  %add.ptr40 = getelementptr i16, ptr %43, i64 109
  %44 = load ptr, ptr %s.addr, align 8
  %wwn41 = getelementptr inbounds %struct.IDEState, ptr %44, i32 0, i32 16
  %45 = load i64, ptr %wwn41, align 8
  %shr42 = lshr i64 %45, 32
  %conv43 = trunc i64 %shr42 to i32
  call void @put_le16(ptr noundef %add.ptr40, i32 noundef %conv43)
  %46 = load ptr, ptr %p, align 8
  %add.ptr44 = getelementptr i16, ptr %46, i64 110
  %47 = load ptr, ptr %s.addr, align 8
  %wwn45 = getelementptr inbounds %struct.IDEState, ptr %47, i32 0, i32 16
  %48 = load i64, ptr %wwn45, align 8
  %shr46 = lshr i64 %48, 16
  %conv47 = trunc i64 %shr46 to i32
  call void @put_le16(ptr noundef %add.ptr44, i32 noundef %conv47)
  %49 = load ptr, ptr %p, align 8
  %add.ptr48 = getelementptr i16, ptr %49, i64 111
  %50 = load ptr, ptr %s.addr, align 8
  %wwn49 = getelementptr inbounds %struct.IDEState, ptr %50, i32 0, i32 16
  %51 = load i64, ptr %wwn49, align 8
  %conv50 = trunc i64 %51 to i32
  call void @put_le16(ptr noundef %add.ptr48, i32 noundef %conv50)
  br label %if.end51

if.end51:                                         ; preds = %if.then37, %if.end33
  %52 = load ptr, ptr %s.addr, align 8
  %identify_set52 = getelementptr inbounds %struct.IDEState, ptr %52, i32 0, i32 11
  store i32 1, ptr %identify_set52, align 4
  br label %fill_buffer

fill_buffer:                                      ; preds = %if.end51, %if.then
  %53 = load ptr, ptr %s.addr, align 8
  %io_buffer = getelementptr inbounds %struct.IDEState, ptr %53, i32 0, i32 58
  %54 = load ptr, ptr %io_buffer, align 8
  %55 = load ptr, ptr %p, align 8
  call void @llvm.memcpy.p0.p0.i64(ptr align 1 %54, ptr align 2 %55, i64 512, i1 false)
  ret void
}

; Function Attrs: nounwind sspstrong uwtable
define internal zeroext i1 @cmd_identify_packet(ptr noundef %s, i8 noundef zeroext %cmd) #0 {
entry:
  %s.addr = alloca ptr, align 8
  %cmd.addr = alloca i8, align 1
  store ptr %s, ptr %s.addr, align 8
  store i8 %cmd, ptr %cmd.addr, align 1
  %0 = load ptr, ptr %s.addr, align 8
  call void @ide_atapi_identify(ptr noundef %0)
  %1 = load ptr, ptr %s.addr, align 8
  %status = getelementptr inbounds %struct.IDEState, ptr %1, i32 0, i32 29
  store i8 80, ptr %status, align 1
  %2 = load ptr, ptr %s.addr, align 8
  %3 = load ptr, ptr %s.addr, align 8
  %io_buffer = getelementptr inbounds %struct.IDEState, ptr %3, i32 0, i32 58
  %4 = load ptr, ptr %io_buffer, align 8
  call void @ide_transfer_start(ptr noundef %2, ptr noundef %4, i32 noundef 512, ptr noundef @ide_transfer_stop)
  %5 = load ptr, ptr %s.addr, align 8
  %bus = getelementptr inbounds %struct.IDEState, ptr %5, i32 0, i32 0
  %6 = load ptr, ptr %bus, align 8
  call void @ide_bus_set_irq(ptr noundef %6)
  ret i1 false
}