; Function Attrs: nounwind sspstrong uwtable
define internal noundef zeroext i1 @cmd_identify_packet(ptr noundef %s, i8 zeroext %cmd) #0 {
entry:
  %identify_data.i = getelementptr inbounds nuw i8, ptr %s, i64 56
  %identify_set.i = getelementptr inbounds nuw i8, ptr %s, i64 52
  %0 = load i32, ptr %identify_set.i, align 4
  %tobool.not.i = icmp eq i32 %0, 0
  br i1 %tobool.not.i, label %if.end.i, label %ide_atapi_identify.exit

if.end.i:                                         ; preds = %entry
  %1 = getelementptr inbounds nuw i8, ptr %s, i64 58
  tail call void @llvm.memset.p0.i64(ptr noundef nonnull align 2 dereferenceable(512) %1, i8 0, i64 510, i1 false)
  store i16 -31296, ptr %identify_data.i, align 2
  %add.ptr1.i = getelementptr i8, ptr %s, i64 76
  %drive_serial_str.i = getelementptr inbounds nuw i8, ptr %s, i64 572
  br label %for.body.i.i

for.body.i.i:                                     ; preds = %for.body.i.i, %if.end.i
  %i.05.i.i = phi i32 [ 0, %if.end.i ], [ %inc.i.i, %for.body.i.i ]
  %src.addr.04.i.i = phi ptr [ %drive_serial_str.i, %if.end.i ], [ %src.addr.1.i.i, %for.body.i.i ]
  %2 = load i8, ptr %src.addr.04.i.i, align 1
  %tobool.not.i.i = icmp ne i8 %2, 0
  %src.addr.1.idx.i.i = zext i1 %tobool.not.i.i to i64
  %src.addr.1.i.i = getelementptr i8, ptr %src.addr.04.i.i, i64 %src.addr.1.idx.i.i
  %v.0.i.i = select i1 %tobool.not.i.i, i8 %2, i8 32
  %xor.i.i = xor i32 %i.05.i.i, 1
  %idxprom.i.i = zext nneg i32 %xor.i.i to i64
  %arrayidx.i.i = getelementptr i8, ptr %add.ptr1.i, i64 %idxprom.i.i
  store i8 %v.0.i.i, ptr %arrayidx.i.i, align 1
  %inc.i.i = add nuw nsw i32 %i.05.i.i, 1
  %exitcond.not.i.i = icmp eq i32 %inc.i.i, 20
  br i1 %exitcond.not.i.i, label %padstr.exit.i, label %for.body.i.i, !llvm.loop !13

padstr.exit.i:                                    ; preds = %for.body.i.i
  %add.ptr3.i = getelementptr i8, ptr %s, i64 96
  store i16 3, ptr %add.ptr3.i, align 2
  %add.ptr4.i = getelementptr i8, ptr %s, i64 98
  store i16 512, ptr %add.ptr4.i, align 2
  %add.ptr5.i = getelementptr i8, ptr %s, i64 100
  store i16 4, ptr %add.ptr5.i, align 2
  %add.ptr6.i = getelementptr i8, ptr %s, i64 102
  %version.i = getelementptr inbounds nuw i8, ptr %s, i64 680
  br label %for.body.i46.i

for.body.i46.i:                                   ; preds = %for.body.i46.i, %padstr.exit.i
  %i.05.i47.i = phi i32 [ 0, %padstr.exit.i ], [ %inc.i56.i, %for.body.i46.i ]
  %src.addr.04.i48.i = phi ptr [ %version.i, %padstr.exit.i ], [ %src.addr.1.i51.i, %for.body.i46.i ]
  %3 = load i8, ptr %src.addr.04.i48.i, align 1
  %tobool.not.i49.i = icmp ne i8 %3, 0
  %src.addr.1.idx.i50.i = zext i1 %tobool.not.i49.i to i64
  %src.addr.1.i51.i = getelementptr i8, ptr %src.addr.04.i48.i, i64 %src.addr.1.idx.i50.i
  %v.0.i52.i = select i1 %tobool.not.i49.i, i8 %3, i8 32
  %xor.i53.i = xor i32 %i.05.i47.i, 1
  %idxprom.i54.i = zext nneg i32 %xor.i53.i to i64
  %arrayidx.i55.i = getelementptr i8, ptr %add.ptr6.i, i64 %idxprom.i54.i
  store i8 %v.0.i52.i, ptr %arrayidx.i55.i, align 1
  %inc.i56.i = add nuw nsw i32 %i.05.i47.i, 1
  %exitcond.not.i57.i = icmp eq i32 %inc.i56.i, 8
  br i1 %exitcond.not.i57.i, label %padstr.exit58.i, label %for.body.i46.i, !llvm.loop !13

padstr.exit58.i:                                  ; preds = %for.body.i46.i
  %add.ptr8.i = getelementptr i8, ptr %s, i64 110
  %drive_model_str.i = getelementptr inbounds nuw i8, ptr %s, i64 593
  br label %for.body.i59.i

for.body.i59.i:                                   ; preds = %for.body.i59.i, %padstr.exit58.i
  %i.05.i60.i = phi i32 [ 0, %padstr.exit58.i ], [ %inc.i69.i, %for.body.i59.i ]
  %src.addr.04.i61.i = phi ptr [ %drive_model_str.i, %padstr.exit58.i ], [ %src.addr.1.i64.i, %for.body.i59.i ]
  %4 = load i8, ptr %src.addr.04.i61.i, align 1
  %tobool.not.i62.i = icmp ne i8 %4, 0
  %src.addr.1.idx.i63.i = zext i1 %tobool.not.i62.i to i64
  %src.addr.1.i64.i = getelementptr i8, ptr %src.addr.04.i61.i, i64 %src.addr.1.idx.i63.i
  %v.0.i65.i = select i1 %tobool.not.i62.i, i8 %4, i8 32
  %xor.i66.i = xor i32 %i.05.i60.i, 1
  %idxprom.i67.i = zext nneg i32 %xor.i66.i to i64
  %arrayidx.i68.i = getelementptr i8, ptr %add.ptr8.i, i64 %idxprom.i67.i
  store i8 %v.0.i65.i, ptr %arrayidx.i68.i, align 1
  %inc.i69.i = add nuw nsw i32 %i.05.i60.i, 1
  %exitcond.not.i70.i = icmp eq i32 %inc.i69.i, 40
  br i1 %exitcond.not.i70.i, label %padstr.exit71.i, label %for.body.i59.i, !llvm.loop !13

padstr.exit71.i:                                  ; preds = %for.body.i59.i
  %add.ptr10.i = getelementptr i8, ptr %s, i64 152
  store i16 1, ptr %add.ptr10.i, align 2
  %add.ptr11.i = getelementptr i8, ptr %s, i64 154
  store i16 768, ptr %add.ptr11.i, align 2
  %add.ptr12.i = getelementptr i8, ptr %s, i64 162
  store i16 7, ptr %add.ptr12.i, align 2
  %add.ptr13.i = getelementptr i8, ptr %s, i64 180
  store i16 7, ptr %add.ptr13.i, align 2
  %add.ptr14.i = getelementptr i8, ptr %s, i64 182
  store i16 7, ptr %add.ptr14.i, align 2
  %add.ptr15.i = getelementptr i8, ptr %s, i64 184
  store i16 3, ptr %add.ptr15.i, align 2
  %add.ptr16.i = getelementptr i8, ptr %s, i64 186
  store i16 180, ptr %add.ptr16.i, align 2
  %add.ptr17.i = getelementptr i8, ptr %s, i64 188
  store i16 180, ptr %add.ptr17.i, align 2
  %add.ptr18.i = getelementptr i8, ptr %s, i64 190
  store i16 300, ptr %add.ptr18.i, align 2
  %add.ptr19.i = getelementptr i8, ptr %s, i64 192
  store i16 180, ptr %add.ptr19.i, align 2
  %add.ptr20.i = getelementptr i8, ptr %s, i64 198
  store i16 30, ptr %add.ptr20.i, align 2
  %add.ptr21.i = getelementptr i8, ptr %s, i64 200
  store i16 30, ptr %add.ptr21.i, align 2
  %ncq_queues.i = getelementptr inbounds nuw i8, ptr %s, i64 976
  %5 = load i32, ptr %ncq_queues.i, align 8
  %tobool22.not.i = icmp eq i32 %5, 0
  br i1 %tobool22.not.i, label %if.end27.i, label %if.then23.i

if.then23.i:                                      ; preds = %padstr.exit71.i
  %add.ptr24.i = getelementptr i8, ptr %s, i64 206
  %6 = trunc i32 %5 to i16
  %conv.i.i = add i16 %6, -1
  store i16 %conv.i.i, ptr %add.ptr24.i, align 2
  %add.ptr26.i = getelementptr i8, ptr %s, i64 208
  store i16 256, ptr %add.ptr26.i, align 2
  br label %if.end27.i

if.end27.i:                                       ; preds = %if.then23.i, %padstr.exit71.i
  %add.ptr28.i = getelementptr i8, ptr %s, i64 216
  store i16 30, ptr %add.ptr28.i, align 2
  %wwn.i = getelementptr inbounds nuw i8, ptr %s, i64 640
  %7 = load i64, ptr %wwn.i, align 8
  %tobool29.not.i = icmp eq i64 %7, 0
  br i1 %tobool29.not.i, label %if.end51.i, label %if.then37.i

if.then37.i:                                      ; preds = %if.end27.i
  %add.ptr31.i = getelementptr i8, ptr %s, i64 224
  store i16 256, ptr %add.ptr31.i, align 2
  %add.ptr32.i = getelementptr i8, ptr %s, i64 230
  store i16 256, ptr %add.ptr32.i, align 2
  %add.ptr38.i = getelementptr i8, ptr %s, i64 272
  %shr.i = lshr i64 %7, 48
  %conv.i72.i = trunc nuw i64 %shr.i to i16
  store i16 %conv.i72.i, ptr %add.ptr38.i, align 2
  %add.ptr40.i = getelementptr i8, ptr %s, i64 274
  %shr42.i = lshr i64 %7, 32
  %conv.i73.i = trunc i64 %shr42.i to i16
  store i16 %conv.i73.i, ptr %add.ptr40.i, align 2
  %add.ptr44.i = getelementptr i8, ptr %s, i64 276
  %shr46.i = lshr i64 %7, 16
  %conv.i74.i = trunc i64 %shr46.i to i16
  store i16 %conv.i74.i, ptr %add.ptr44.i, align 2
  %add.ptr48.i = getelementptr i8, ptr %s, i64 278
  %conv.i75.i = trunc i64 %7 to i16
  store i16 %conv.i75.i, ptr %add.ptr48.i, align 2
  br label %if.end51.i

if.end51.i:                                       ; preds = %if.then37.i, %if.end27.i
  %8 = getelementptr i8, ptr %s, i64 232
  store i16 8255, ptr %8, align 2
  store i32 1, ptr %identify_set.i, align 4
  br label %ide_atapi_identify.exit

ide_atapi_identify.exit:                          ; preds = %entry, %if.end51.i
  %io_buffer.i = getelementptr inbounds nuw i8, ptr %s, i64 888
  %9 = load ptr, ptr %io_buffer.i, align 8
  tail call void @llvm.memcpy.p0.p0.i64(ptr noundef nonnull align 1 dereferenceable(512) %9, ptr noundef nonnull align 2 dereferenceable(512) %identify_data.i, i64 512, i1 false)
  %status = getelementptr inbounds nuw i8, ptr %s, i64 665
  store i8 80, ptr %status, align 1
  %10 = load ptr, ptr %io_buffer.i, align 8
  %call.i = tail call zeroext i1 @ide_transfer_start_norecurse(ptr noundef nonnull %s, ptr noundef %10, i32 noundef 512, ptr noundef nonnull @ide_transfer_stop)
  %.pre10 = load ptr, ptr %s, align 8
  br i1 %call.i, label %if.then.i, label %ide_transfer_start.exit

if.then.i:                                        ; preds = %ide_atapi_identify.exit
  %end_transfer_func.i.i = getelementptr inbounds nuw i8, ptr %s, i64 864
  store ptr @ide_transfer_stop, ptr %end_transfer_func.i.i, align 8
  %11 = load ptr, ptr %io_buffer.i, align 8
  %data_ptr.i.i = getelementptr inbounds nuw i8, ptr %s, i64 872
  store ptr %11, ptr %data_ptr.i.i, align 8
  %data_end.i.i = getelementptr inbounds nuw i8, ptr %s, i64 880
  store ptr %11, ptr %data_end.i.i, align 8
  %12 = load i8, ptr %status, align 1
  %13 = and i8 %12, -9
  store i8 %13, ptr %status, align 1
  %14 = getelementptr i8, ptr %.pre10, i64 2120
  %s.val.val.i = load ptr, ptr %14, align 8
  %15 = load ptr, ptr %s.val.val.i, align 8
  %cmd_done.i.i = getelementptr inbounds nuw i8, ptr %15, i64 64
  %16 = load ptr, ptr %cmd_done.i.i, align 8
  %tobool.not.i.i9 = icmp eq ptr %16, null
  br i1 %tobool.not.i.i9, label %ide_transfer_start.exit, label %if.then.i.i

if.then.i.i:                                      ; preds = %if.then.i
  tail call void %16(ptr noundef nonnull %s.val.val.i) #17
  %.pre = load ptr, ptr %s, align 8
  br label %ide_transfer_start.exit

ide_transfer_start.exit:                          ; preds = %if.then.i.i, %if.then.i, %ide_atapi_identify.exit
  %17 = phi ptr [ %.pre, %if.then.i.i ], [ %.pre10, %if.then.i ], [ %.pre10, %ide_atapi_identify.exit ]
  %cmd.i = getelementptr inbounds nuw i8, ptr %17, i64 2129
  %18 = load i8, ptr %cmd.i, align 1
  %19 = and i8 %18, 2
  %tobool.not.i6 = icmp eq i8 %19, 0
  br i1 %tobool.not.i6, label %if.then.i8, label %ide_bus_set_irq.exit

if.then.i8:                                       ; preds = %ide_transfer_start.exit
  %irq.i = getelementptr inbounds nuw i8, ptr %17, i64 2136
  %20 = load ptr, ptr %irq.i, align 8
  tail call void @qemu_set_irq(ptr noundef %20, i32 noundef 1) #17
  br label %ide_bus_set_irq.exit

ide_bus_set_irq.exit:                             ; preds = %ide_transfer_start.exit, %if.then.i8
  ret i1 false
}